; Function Attrs: nounwind uwtable
define range(i32 -1, 1) i32 @H5E__destroy_stack(ptr noundef captures(address_is_null) %0) local_unnamed_addr #0 {
  %2 = load i8, ptr @H5E_init_g, align 1, !tbaa !3, !range !7, !noundef !8
  %3 = trunc nuw i8 %2 to i1
  %4 = load i8, ptr @H5_libterm_g, align 1, !range !7
  %5 = trunc nuw i8 %4 to i1
  %6 = xor i1 %5, true
  %7 = select i1 %3, i1 true, i1 %6
  br i1 %7, label %8, label %18, !prof !9

8:                                                ; preds = %1
  %9 = icmp eq ptr %0, null
  %spec.store.select = select i1 %9, ptr @H5E_stack_g, ptr %0
  %10 = load i64, ptr %spec.store.select, align 8, !tbaa !13
  %.not = icmp eq i64 %10, 0
  br i1 %.not, label %18, label %11

11:                                               ; preds = %8
  %12 = tail call fastcc i32 @H5E__clear_entries(ptr noundef nonnull %spec.store.select, i64 noundef %10)
  %13 = icmp slt i32 %12, 0
  br i1 %13, label %14, label %18

14:                                               ; preds = %11
  %15 = load i64, ptr @H5E_ERROR_g, align 8, !tbaa !10
  %16 = load i64, ptr @H5E_CANTSET_g, align 8, !tbaa !10
  %17 = tail call i32 (ptr, ptr, i32, i64, i64, ptr, ...) @H5E_printf_stack(ptr noundef nonnull @.str.1, ptr noundef nonnull @__func__.H5E__destroy_stack, i32 noundef 1892, i64 noundef %15, i64 noundef %16, ptr noundef nonnull @.str.15)
  br label %18

18:                                               ; preds = %14, %11, %8, %1
  %.0 = phi i32 [ -1, %14 ], [ 0, %11 ], [ 0, %8 ], [ 0, %1 ]
  ret i32 %.0
}